target datalayout = "e-m:e-p270:32:32-p271:32:32-p272:64:64-i64:64-i128:128-f80:128-n8:16:32:64-S128"
target triple = "x86_64-pc-linux-gnu"

%struct.H5Z_class2_t = type { i32, i32, i32, i32, ptr, ptr, ptr, ptr }
%struct.H5Z_object_t = type { i32, i32 }

@.str = private unnamed_addr constant [97 x i8] c"generated/home/dtcxzyw/WorkSpace/Projects/compilers/llvm-opt-benchmark/bench/hdf5/hdf5/src/H5Z.c\00", align 1
@H5E_PLINE_g = external global i64, align 8
@H5Z_table_g = internal global ptr null, align 8
@H5Z_table_used_g = internal global i64 0, align 8
@__func__.H5Z__unregister = private unnamed_addr constant [16 x i8] c"H5Z__unregister\00", align 1
@H5E_NOTFOUND_g = external global i64, align 8
@.str.15 = private unnamed_addr constant [25 x i8] c"filter is not registered\00", align 1
@H5E_FILE_g = external global i64, align 8
@H5E_BADITER_g = external global i64, align 8
@.str.16 = private unnamed_addr constant [17 x i8] c"iteration failed\00", align 1
@H5E_CANTRELEASE_g = external global i64, align 8
@.str.17 = private unnamed_addr constant [60 x i8] c"can't unregister filter because a dataset is still using it\00", align 1
@.str.18 = private unnamed_addr constant [58 x i8] c"can't unregister filter because a group is still using it\00", align 1

; Function Attrs: nounwind uwtable
define i32 @H5Z__unregister(i32 noundef %0) #0 {
  %2 = alloca i32, align 4
  %3 = alloca i64, align 8
  %4 = alloca %struct.H5Z_object_t, align 4
  %5 = alloca i32, align 4
  %6 = alloca i8, align 1
  store i32 %0, ptr %2, align 4
  store i32 0, ptr %5, align 4
  store i8 0, ptr %6, align 1
  store i64 0, ptr %3, align 8
  br label %7

7:                                                ; preds = %21, %1
  %8 = load i64, ptr %3, align 8
  %9 = load i64, ptr @H5Z_table_used_g, align 8
  %10 = icmp ult i64 %8, %9
  br i1 %10, label %11, label %24

11:                                               ; preds = %7
  %12 = load ptr, ptr @H5Z_table_g, align 8
  %13 = load i64, ptr %3, align 8
  %14 = getelementptr inbounds %struct.H5Z_class2_t, ptr %12, i64 %13
  %15 = getelementptr inbounds %struct.H5Z_class2_t, ptr %14, i32 0, i32 1
  %16 = load i32, ptr %15, align 4
  %17 = load i32, ptr %2, align 4
  %18 = icmp eq i32 %16, %17
  br i1 %18, label %19, label %20

19:                                               ; preds = %11
  br label %24

20:                                               ; preds = %11
  br label %21

21:                                               ; preds = %20
  %22 = load i64, ptr %3, align 8
  %23 = add i64 %22, 1
  store i64 %23, ptr %3, align 8
  br label %7

24:                                               ; preds = %19, %7
  %25 = load i64, ptr %3, align 8
  %26 = load i64, ptr @H5Z_table_used_g, align 8
  %27 = icmp uge i64 %25, %26
  br i1 %27, label %28, label %43

28:                                               ; preds = %24
  br label %29

29:                                               ; preds = %28
  br label %30

30:                                               ; preds = %29
  br label %31

31:                                               ; preds = %30
  %32 = load i64, ptr @H5E_PLINE_g, align 8
  %33 = load i64, ptr @H5E_NOTFOUND_g, align 8
  %34 = call i32 (ptr, ptr, i32, i64, i64, ptr, ...) @H5E_printf_stack(ptr noundef @.str, ptr noundef @__func__.H5Z__unregister, i32 noundef 403, i64 noundef %32, i64 noundef %33, ptr noundef @.str.15)
  br label %35

35:                                               ; preds = %31
  store i8 1, ptr %6, align 1
  %36 = load i8, ptr %6, align 1
  %37 = trunc i8 %36 to i1
  %38 = zext i1 %37 to i8
  store i8 %38, ptr %6, align 1
  br label %39

39:                                               ; preds = %35
  br label %40

40:                                               ; preds = %39
  store i32 -1, ptr %5, align 4
  br label %153

41:                                               ; No predecessors!
  br label %42

42:                                               ; preds = %41
  br label %43

43:                                               ; preds = %42, %24
  %44 = load i32, ptr %2, align 4
  %45 = getelementptr inbounds %struct.H5Z_object_t, ptr %4, i32 0, i32 0
  store i32 %44, ptr %45, align 4
  %46 = getelementptr inbounds %struct.H5Z_object_t, ptr %4, i32 0, i32 1
  store i32 0, ptr %46, align 4
  %47 = call i32 @H5I_iterate(i32 noundef 5, ptr noundef @H5Z__check_unregister_dset_cb, ptr noundef %4, i1 noundef zeroext false)
  %48 = icmp slt i32 %47, 0
  br i1 %48, label %49, label %64

49:                                               ; preds = %43
  br label %50

50:                                               ; preds = %49
  br label %51

51:                                               ; preds = %50
  br label %52

52:                                               ; preds = %51
  %53 = load i64, ptr @H5E_FILE_g, align 8
  %54 = load i64, ptr @H5E_BADITER_g, align 8
  %55 = call i32 (ptr, ptr, i32, i64, i64, ptr, ...) @H5E_printf_stack(ptr noundef @.str, ptr noundef @__func__.H5Z__unregister, i32 noundef 414, i64 noundef %53, i64 noundef %54, ptr noundef @.str.16)
  br label %56

56:                                               ; preds = %52
  store i8 1, ptr %6, align 1
  %57 = load i8, ptr %6, align 1
  %58 = trunc i8 %57 to i1
  %59 = zext i1 %58 to i8
  store i8 %59, ptr %6, align 1
  br label %60

60:                                               ; preds = %56
  br label %61

61:                                               ; preds = %60
  store i32 -1, ptr %5, align 4
  br label %153

62:                                               ; No predecessors!
  br label %63

63:                                               ; preds = %62
  br label %64

64:                                               ; preds = %63, %43
  %65 = getelementptr inbounds %struct.H5Z_object_t, ptr %4, i32 0, i32 1
  %66 = load i32, ptr %65, align 4
  %67 = icmp ne i32 %66, 0
  br i1 %67, label %68, label %83

68:                                               ; preds = %64
  br label %69

69:                                               ; preds = %68
  br label %70

70:                                               ; preds = %69
  br label %71

71:                                               ; preds = %70
  %72 = load i64, ptr @H5E_PLINE_g, align 8
  %73 = load i64, ptr @H5E_CANTRELEASE_g, align 8
  %74 = call i32 (ptr, ptr, i32, i64, i64, ptr, ...) @H5E_printf_stack(ptr noundef @.str, ptr noundef @__func__.H5Z__unregister, i32 noundef 418, i64 noundef %72, i64 noundef %73, ptr noundef @.str.17)
  br label %75

75:                                               ; preds = %71
  store i8 1, ptr %6, align 1
  %76 = load i8, ptr %6, align 1
  %77 = trunc i8 %76 to i1
  %78 = zext i1 %77 to i8
  store i8 %78, ptr %6, align 1
  br label %79

79:                                               ; preds = %75
  br label %80

80:                                               ; preds = %79
  store i32 -1, ptr %5, align 4
  br label %153

81:                                               ; No predecessors!
  br label %82

82:                                               ; preds = %81
  br label %83

83:                                               ; preds = %82, %64
  %84 = call i32 @H5I_iterate(i32 noundef 2, ptr noundef @H5Z__check_unregister_group_cb, ptr noundef %4, i1 noundef zeroext false)
  %85 = icmp slt i32 %84, 0
  br i1 %85, label %86, label %101

86:                                               ; preds = %83
  br label %87

87:                                               ; preds = %86
  br label %88

88:                                               ; preds = %87
  br label %89

89:                                               ; preds = %88
  %90 = load i64, ptr @H5E_FILE_g, align 8
  %91 = load i64, ptr @H5E_BADITER_g, align 8
  %92 = call i32 (ptr, ptr, i32, i64, i64, ptr, ...) @H5E_printf_stack(ptr noundef @.str, ptr noundef @__func__.H5Z__unregister, i32 noundef 422, i64 noundef %90, i64 noundef %91, ptr noundef @.str.16)
  br label %93

93:                                               ; preds = %89
  store i8 1, ptr %6, align 1
  %94 = load i8, ptr %6, align 1
  %95 = trunc i8 %94 to i1
  %96 = zext i1 %95 to i8
  store i8 %96, ptr %6, align 1
  br label %97

97:                                               ; preds = %93
  br label %98

98:                                               ; preds = %97
  store i32 -1, ptr %5, align 4
  br label %153

99:                                               ; No predecessors!
  br label %100

100:                                              ; preds = %99
  br label %101

101:                                              ; preds = %100, %83
  %102 = getelementptr inbounds %struct.H5Z_object_t, ptr %4, i32 0, i32 1
  %103 = load i32, ptr %102, align 4
  %104 = icmp ne i32 %103, 0
  br i1 %104, label %105, label %120

105:                                              ; preds = %101
  br label %106

106:                                              ; preds = %105
  br label %107

107:                                              ; preds = %106
  br label %108

108:                                              ; preds = %107
  %109 = load i64, ptr @H5E_PLINE_g, align 8
  %110 = load i64, ptr @H5E_CANTRELEASE_g, align 8
  %111 = call i32 (ptr, ptr, i32, i64, i64, ptr, ...) @H5E_printf_stack(ptr noundef @.str, ptr noundef @__func__.H5Z__unregister, i32 noundef 426, i64 noundef %109, i64 noundef %110, ptr noundef @.str.18)
  br label %112

112:                                              ; preds = %108
  store i8 1, ptr %6, align 1
  %113 = load i8, ptr %6, align 1
  %114 = trunc i8 %113 to i1
  %115 = zext i1 %114 to i8
  store i8 %115, ptr %6, align 1
  br label %116

116:                                              ; preds = %112
  br label %117

117:                                              ; preds = %116
  store i32 -1, ptr %5, align 4
  br label %153

118:                                              ; No predecessors!
  br label %119

119:                                              ; preds = %118
  br label %120

120:                                              ; preds = %119, %101
  %121 = call i32 @H5I_iterate(i32 noundef 1, ptr noundef @H5Z__flush_file_cb, ptr noundef %4, i1 noundef zeroext false)
  %122 = icmp slt i32 %121, 0
  br i1 %122, label %123, label %138

123:                                              ; preds = %120
  br label %124

124:                                              ; preds = %123
  br label %125

125:                                              ; preds = %124
  br label %126

126:                                              ; preds = %125
  %127 = load i64, ptr @H5E_FILE_g, align 8
  %128 = load i64, ptr @H5E_BADITER_g, align 8
  %129 = call i32 (ptr, ptr, i32, i64, i64, ptr, ...) @H5E_printf_stack(ptr noundef @.str, ptr noundef @__func__.H5Z__unregister, i32 noundef 430, i64 noundef %127, i64 noundef %128, ptr noundef @.str.16)
  br label %130

130:                                              ; preds = %126
  store i8 1, ptr %6, align 1
  %131 = load i8, ptr %6, align 1
  %132 = trunc i8 %131 to i1
  %133 = zext i1 %132 to i8
  store i8 %133, ptr %6, align 1
  br label %134

134:                                              ; preds = %130
  br label %135

135:                                              ; preds = %134
  store i32 -1, ptr %5, align 4
  br label %153

136:                                              ; No predecessors!
  br label %137

137:                                              ; preds = %136
  br label %138

138:                                              ; preds = %137, %120
  %139 = load ptr, ptr @H5Z_table_g, align 8
  %140 = load i64, ptr %3, align 8
  %141 = getelementptr inbounds %struct.H5Z_class2_t, ptr %139, i64 %140
  %142 = load ptr, ptr @H5Z_table_g, align 8
  %143 = load i64, ptr %3, align 8
  %144 = add i64 %143, 1
  %145 = getelementptr inbounds %struct.H5Z_class2_t, ptr %142, i64 %144
  %146 = load i64, ptr @H5Z_table_used_g, align 8
  %147 = sub i64 %146, 1
  %148 = load i64, ptr %3, align 8
  %149 = sub i64 %147, %148
  %150 = mul i64 48, %149
  call void @llvm.memmove.p0.p0.i64(ptr align 8 %141, ptr align 8 %145, i64 %150, i1 false)
  %151 = load i64, ptr @H5Z_table_used_g, align 8
  %152 = add i64 %151, -1
  store i64 %152, ptr @H5Z_table_used_g, align 8
  br label %153

153:                                              ; preds = %138, %135, %117, %98, %80, %61, %40
  %154 = load i32, ptr %5, align 4
  ret i32 %154
}