; Function Attrs: nounwind uwtable
define range(i32 -1, 1) i32 @H5Z__unregister(i32 noundef %0) local_unnamed_addr #0 {
  %2 = alloca %struct.H5Z_object_t, align 4
  %3 = load i64, ptr @H5Z_table_used_g, align 8
  %.not = icmp eq i64 %3, 0
  br i1 %.not, label %._crit_edge, label %.lr.ph

.lr.ph:                                           ; preds = %1
  %4 = load ptr, ptr @H5Z_table_g, align 8
  br label %5

5:                                                ; preds = %.lr.ph, %9
  %.01620 = phi i64 [ 0, %.lr.ph ], [ %10, %9 ]
  %6 = getelementptr inbounds %struct.H5Z_class2_t, ptr %4, i64 %.01620, i32 1
  %7 = load i32, ptr %6, align 4
  %8 = icmp eq i32 %7, %0
  br i1 %8, label %14, label %9

9:                                                ; preds = %5
  %10 = add nuw i64 %.01620, 1
  %exitcond.not = icmp eq i64 %10, %3
  br i1 %exitcond.not, label %._crit_edge, label %5

._crit_edge:                                      ; preds = %9, %1
  %11 = load i64, ptr @H5E_PLINE_g, align 8
  %12 = load i64, ptr @H5E_NOTFOUND_g, align 8
  %13 = tail call i32 (ptr, ptr, i32, i64, i64, ptr, ...) @H5E_printf_stack(ptr noundef nonnull @.str, ptr noundef nonnull @__func__.H5Z__unregister, i32 noundef 403, i64 noundef %11, i64 noundef %12, ptr noundef nonnull @.str.15) #9
  br label %57

14:                                               ; preds = %5
  store i32 %0, ptr %2, align 4
  %15 = getelementptr inbounds i8, ptr %2, i64 4
  store i32 0, ptr %15, align 4
  %16 = call i32 @H5I_iterate(i32 noundef 5, ptr noundef nonnull @H5Z__check_unregister_dset_cb, ptr noundef nonnull %2, i1 noundef zeroext false) #9
  %17 = icmp slt i32 %16, 0
  br i1 %17, label %18, label %22

18:                                               ; preds = %14
  %19 = load i64, ptr @H5E_FILE_g, align 8
  %20 = load i64, ptr @H5E_BADITER_g, align 8
  %21 = call i32 (ptr, ptr, i32, i64, i64, ptr, ...) @H5E_printf_stack(ptr noundef nonnull @.str, ptr noundef nonnull @__func__.H5Z__unregister, i32 noundef 414, i64 noundef %19, i64 noundef %20, ptr noundef nonnull @.str.16) #9
  br label %57

22:                                               ; preds = %14
  %23 = load i32, ptr %15, align 4
  %.not17 = icmp eq i32 %23, 0
  br i1 %.not17, label %28, label %24

24:                                               ; preds = %22
  %25 = load i64, ptr @H5E_PLINE_g, align 8
  %26 = load i64, ptr @H5E_CANTRELEASE_g, align 8
  %27 = call i32 (ptr, ptr, i32, i64, i64, ptr, ...) @H5E_printf_stack(ptr noundef nonnull @.str, ptr noundef nonnull @__func__.H5Z__unregister, i32 noundef 418, i64 noundef %25, i64 noundef %26, ptr noundef nonnull @.str.17) #9
  br label %57

28:                                               ; preds = %22
  %29 = call i32 @H5I_iterate(i32 noundef 2, ptr noundef nonnull @H5Z__check_unregister_group_cb, ptr noundef nonnull %2, i1 noundef zeroext false) #9
  %30 = icmp slt i32 %29, 0
  br i1 %30, label %31, label %35

31:                                               ; preds = %28
  %32 = load i64, ptr @H5E_FILE_g, align 8
  %33 = load i64, ptr @H5E_BADITER_g, align 8
  %34 = call i32 (ptr, ptr, i32, i64, i64, ptr, ...) @H5E_printf_stack(ptr noundef nonnull @.str, ptr noundef nonnull @__func__.H5Z__unregister, i32 noundef 422, i64 noundef %32, i64 noundef %33, ptr noundef nonnull @.str.16) #9
  br label %57

35:                                               ; preds = %28
  %36 = load i32, ptr %15, align 4
  %.not18 = icmp eq i32 %36, 0
  br i1 %.not18, label %41, label %37

37:                                               ; preds = %35
  %38 = load i64, ptr @H5E_PLINE_g, align 8
  %39 = load i64, ptr @H5E_CANTRELEASE_g, align 8
  %40 = call i32 (ptr, ptr, i32, i64, i64, ptr, ...) @H5E_printf_stack(ptr noundef nonnull @.str, ptr noundef nonnull @__func__.H5Z__unregister, i32 noundef 426, i64 noundef %38, i64 noundef %39, ptr noundef nonnull @.str.18) #9
  br label %57

41:                                               ; preds = %35
  %42 = call i32 @H5I_iterate(i32 noundef 1, ptr noundef nonnull @H5Z__flush_file_cb, ptr noundef nonnull %2, i1 noundef zeroext false) #9
  %43 = icmp slt i32 %42, 0
  br i1 %43, label %44, label %48

44:                                               ; preds = %41
  %45 = load i64, ptr @H5E_FILE_g, align 8
  %46 = load i64, ptr @H5E_BADITER_g, align 8
  %47 = call i32 (ptr, ptr, i32, i64, i64, ptr, ...) @H5E_printf_stack(ptr noundef nonnull @.str, ptr noundef nonnull @__func__.H5Z__unregister, i32 noundef 430, i64 noundef %45, i64 noundef %46, ptr noundef nonnull @.str.16) #9
  br label %57

48:                                               ; preds = %41
  %49 = load ptr, ptr @H5Z_table_g, align 8
  %50 = getelementptr %struct.H5Z_class2_t, ptr %49, i64 %.01620
  %51 = getelementptr i8, ptr %50, i64 48
  %52 = load i64, ptr @H5Z_table_used_g, align 8
  %53 = xor i64 %.01620, -1
  %54 = add i64 %52, %53
  %55 = mul i64 %54, 48
  call void @llvm.memmove.p0.p0.i64(ptr align 8 %50, ptr align 8 %51, i64 %55, i1 false)
  %56 = add i64 %52, -1
  store i64 %56, ptr @H5Z_table_used_g, align 8
  br label %57

57:                                               ; preds = %48, %44, %37, %31, %24, %18, %._crit_edge
  %.0 = phi i32 [ -1, %._crit_edge ], [ -1, %18 ], [ -1, %24 ], [ -1, %31 ], [ -1, %37 ], [ -1, %44 ], [ 0, %48 ]
  ret i32 %.0
}